(dp0
Vengine
p1
Vpdflatex
p2
sVpackages
p3
c__builtin__
set
p4
((lp5
Vxcolor
p6
aVgeometry
p7
aVbabel
p8
aVsoul
p9
aVrotating
p10
aVamsmath
p11
aVappendix
p12
aVinputenc
p13
aVcolor
p14
atp15
Rp16
sVfiles_with_guttermarks
p17
g4
((lp18
V/Users/padmasrinivasan/Documents/GitHub/neuralnetworks_48/report/report.tex
p19
aS'report.tex'
p20
aV/Users/padmasrinivasan/Documents/GitHub/neuralnetworks_48/report/./report.tex
p21
atp22
Rp23
sVsynctex
p24
I01
s.