(dp0
Vengine
p1
S'pdflatex'
p2
sVpackages
p3
c__builtin__
set
p4
((lp5
Vxcolor
p6
aVamsmath
p7
aVbabel
p8
aVrotating
p9
aVgeometry
p10
aVappendix
p11
aVgraphicx
p12
aVamssymb
p13
aVinputenc
p14
aVparskip
p15
atp16
Rp17
sVfiles_with_guttermarks
p18
g4
((lp19
V/Users/padmasrinivasan/Documents/GitHub/CO395-Machine_Learning/CW1/report/Report.tex
p20
aV/Users/padmasrinivasan/Documents/GitHub/CO395-Machine_Learning/CW1/report/./Report.tex
p21
aS'Report.tex'
p22
atp23
Rp24
sVsynctex
p25
I01
s.